---
triple:          'x86_64-apple-darwin'
binary-path:     '/Users/paulhoanglong/Desktop/C++_Course/Challenges/c-plus-plus-movie-collection/src/main'
relocations:
  - { offsetInCU: 0x2F4F, offset: 0x2F4F, size: 0x8, addend: 0x0, symName: __ZNSt3__124__put_character_sequenceB7v160006IcNS_11char_traitsIcEEEERNS_13basic_ostreamIT_T0_EES7_PKS4_m, symObjAddr: 0x3E0, symBinAddr: 0x100003E20, symSize: 0x1F0 }
  - { offsetInCU: 0x48D0, offset: 0x48D0, size: 0x8, addend: 0x0, symName: __ZNSt3__1lsB7v160006INS_11char_traitsIcEEEERNS_13basic_ostreamIcT_EES6_PKc, symObjAddr: 0x2E0, symBinAddr: 0x100003D20, symSize: 0x40 }
  - { offsetInCU: 0x4916, offset: 0x4916, size: 0x8, addend: 0x0, symName: __ZNSt3__1lsB7v160006IcNS_11char_traitsIcEENS_9allocatorIcEEEERNS_13basic_ostreamIT_T0_EES9_RKNS_12basic_stringIS6_S7_T1_EE, symObjAddr: 0x320, symBinAddr: 0x100003D60, symSize: 0x50 }
  - { offsetInCU: 0x496E, offset: 0x496E, size: 0x8, addend: 0x0, symName: __ZNSt3__14endlB7v160006IcNS_11char_traitsIcEEEERNS_13basic_ostreamIT_T0_EES7_, symObjAddr: 0x390, symBinAddr: 0x100003DD0, symSize: 0x50 }
  - { offsetInCU: 0x49AE, offset: 0x49AE, size: 0x8, addend: 0x0, symName: __ZNSt3__116__pad_and_outputB7v160006IcNS_11char_traitsIcEEEENS_19ostreambuf_iteratorIT_T0_EES6_PKS4_S8_S8_RNS_8ios_baseES4_, symObjAddr: 0x670, symBinAddr: 0x1000040B0, symSize: 0x220 }
  - { offsetInCU: 0x4A7E, offset: 0x4A7E, size: 0x8, addend: 0x0, symName: __ZNSt3__119__debug_db_insert_cB7v160006INS_12basic_stringIcNS_11char_traitsIcEENS_9allocatorIcEEEEEEvPT_, symObjAddr: 0xB10, symBinAddr: 0x100004550, symSize: 0x10 }
  - { offsetInCU: 0x4AAF, offset: 0x4AAF, size: 0x8, addend: 0x0, symName: __ZNSt3__112__to_addressB7v160006IcEEPT_S2_, symObjAddr: 0xBB0, symBinAddr: 0x1000045F0, symSize: 0x10 }
  - { offsetInCU: 0x4B17, offset: 0x4B17, size: 0x8, addend: 0x0, symName: __ZNSt3__19use_facetB7v160006INS_5ctypeIcEEEERKT_RKNS_6localeE, symObjAddr: 0xE40, symBinAddr: 0x100004880, symSize: 0x30 }
  - { offsetInCU: 0x4FE6, offset: 0x4FE6, size: 0x8, addend: 0x0, symName: __ZNSt3__112__to_addressB7v160006IKcEEPT_S3_, symObjAddr: 0xED0, symBinAddr: 0x100004910, symSize: 0x10 }
  - { offsetInCU: 0x504E, offset: 0x504E, size: 0x8, addend: 0x0, symName: __ZNSt3__118__constexpr_strlenB7v160006EPKc, symObjAddr: 0x1010, symBinAddr: 0x100004A50, symSize: 0x1B }
  - { offsetInCU: 0x772A, offset: 0x772A, size: 0x8, addend: 0x0, symName: __ZN5MovieC2ENSt3__112basic_stringIcNS0_11char_traitsIcEENS0_9allocatorIcEEEES6_i, symObjAddr: 0x0, symBinAddr: 0x100003A40, symSize: 0x80 }
  - { offsetInCU: 0x7780, offset: 0x7780, size: 0x8, addend: 0x0, symName: __ZN5MovieC1ENSt3__112basic_stringIcNS0_11char_traitsIcEENS0_9allocatorIcEEEES6_i, symObjAddr: 0x80, symBinAddr: 0x100003AC0, symSize: 0x30 }
  - { offsetInCU: 0x77D6, offset: 0x77D6, size: 0x8, addend: 0x0, symName: __ZN5MovieC2ERKS_, symObjAddr: 0xB0, symBinAddr: 0x100003AF0, symSize: 0xB0 }
  - { offsetInCU: 0x780E, offset: 0x780E, size: 0x8, addend: 0x0, symName: __ZN5MovieC1ERKS_, symObjAddr: 0x160, symBinAddr: 0x100003BA0, symSize: 0xB0 }
  - { offsetInCU: 0x7846, offset: 0x7846, size: 0x8, addend: 0x0, symName: __ZN5MovieD2Ev, symObjAddr: 0x210, symBinAddr: 0x100003C50, symSize: 0x30 }
  - { offsetInCU: 0x7870, offset: 0x7870, size: 0x8, addend: 0x0, symName: __ZN5MovieD1Ev, symObjAddr: 0x240, symBinAddr: 0x100003C80, symSize: 0x20 }
  - { offsetInCU: 0x789A, offset: 0x789A, size: 0x8, addend: 0x0, symName: __ZNK5Movie7displayEv, symObjAddr: 0x260, symBinAddr: 0x100003CA0, symSize: 0x80 }
  - { offsetInCU: 0x78C0, offset: 0x78C0, size: 0x8, addend: 0x0, symName: __ZNSt3__113basic_ostreamIcNS_11char_traitsIcEEElsB7v160006EPFRS3_S4_E, symObjAddr: 0x370, symBinAddr: 0x100003DB0, symSize: 0x20 }
  - { offsetInCU: 0x78F2, offset: 0x78F2, size: 0x8, addend: 0x0, symName: __ZNKSt3__112basic_stringIcNS_11char_traitsIcEENS_9allocatorIcEEE4dataB7v160006Ev, symObjAddr: 0x5D0, symBinAddr: 0x100004010, symSize: 0x30 }
  - { offsetInCU: 0x7916, offset: 0x7916, size: 0x8, addend: 0x0, symName: __ZNKSt3__112basic_stringIcNS_11char_traitsIcEENS_9allocatorIcEEE4sizeB7v160006Ev, symObjAddr: 0x600, symBinAddr: 0x100004040, symSize: 0x50 }
  - { offsetInCU: 0x7958, offset: 0x7958, size: 0x8, addend: 0x0, symName: __ZNKSt3__113basic_ostreamIcNS_11char_traitsIcEEE6sentrycvbB7v160006Ev, symObjAddr: 0x650, symBinAddr: 0x100004090, symSize: 0x20 }
  - { offsetInCU: 0x797C, offset: 0x797C, size: 0x8, addend: 0x0, symName: __ZNSt3__119ostreambuf_iteratorIcNS_11char_traitsIcEEEC1B7v160006ERNS_13basic_ostreamIcS2_EE, symObjAddr: 0x890, symBinAddr: 0x1000042D0, symSize: 0x30 }
  - { offsetInCU: 0x79B2, offset: 0x79B2, size: 0x8, addend: 0x0, symName: __ZNKSt3__18ios_base5flagsB7v160006Ev, symObjAddr: 0x8C0, symBinAddr: 0x100004300, symSize: 0x20 }
  - { offsetInCU: 0x79D8, offset: 0x79D8, size: 0x8, addend: 0x0, symName: __ZNKSt3__19basic_iosIcNS_11char_traitsIcEEE4fillB7v160006Ev, symObjAddr: 0x8E0, symBinAddr: 0x100004320, symSize: 0x70 }
  - { offsetInCU: 0x79FE, offset: 0x79FE, size: 0x8, addend: 0x0, symName: __ZNKSt3__119ostreambuf_iteratorIcNS_11char_traitsIcEEE6failedB7v160006Ev, symObjAddr: 0x950, symBinAddr: 0x100004390, symSize: 0x20 }
  - { offsetInCU: 0x7A22, offset: 0x7A22, size: 0x8, addend: 0x0, symName: __ZNSt3__19basic_iosIcNS_11char_traitsIcEEE8setstateB7v160006Ej, symObjAddr: 0x970, symBinAddr: 0x1000043B0, symSize: 0x30 }
  - { offsetInCU: 0x7A55, offset: 0x7A55, size: 0x8, addend: 0x0, symName: __ZNKSt3__18ios_base5widthB7v160006Ev, symObjAddr: 0x9B0, symBinAddr: 0x1000043F0, symSize: 0x20 }
  - { offsetInCU: 0x7A7B, offset: 0x7A7B, size: 0x8, addend: 0x0, symName: __ZNSt3__115basic_streambufIcNS_11char_traitsIcEEE5sputnB7v160006EPKcl, symObjAddr: 0x9D0, symBinAddr: 0x100004410, symSize: 0x30 }
  - { offsetInCU: 0x7ABB, offset: 0x7ABB, size: 0x8, addend: 0x0, symName: __ZNSt3__112basic_stringIcNS_11char_traitsIcEENS_9allocatorIcEEEC1B7v160006Emc, symObjAddr: 0xA00, symBinAddr: 0x100004440, symSize: 0x30 }
  - { offsetInCU: 0x7B01, offset: 0x7B01, size: 0x8, addend: 0x0, symName: __ZNSt3__112basic_stringIcNS_11char_traitsIcEENS_9allocatorIcEEE4dataB7v160006Ev, symObjAddr: 0xA30, symBinAddr: 0x100004470, symSize: 0x30 }
  - { offsetInCU: 0x7B25, offset: 0x7B25, size: 0x8, addend: 0x0, symName: __ZNSt3__18ios_base5widthB7v160006El, symObjAddr: 0xA60, symBinAddr: 0x1000044A0, symSize: 0x30 }
  - { offsetInCU: 0x7B69, offset: 0x7B69, size: 0x8, addend: 0x0, symName: __ZNSt3__112basic_stringIcNS_11char_traitsIcEENS_9allocatorIcEEEC2B7v160006Emc, symObjAddr: 0xA90, symBinAddr: 0x1000044D0, symSize: 0x50 }
  - { offsetInCU: 0x7BB4, offset: 0x7BB4, size: 0x8, addend: 0x0, symName: __ZNSt3__117__compressed_pairINS_12basic_stringIcNS_11char_traitsIcEENS_9allocatorIcEEE5__repES5_EC1B7v160006INS_18__default_init_tagESA_EEOT_OT0_, symObjAddr: 0xAE0, symBinAddr: 0x100004520, symSize: 0x30 }
  - { offsetInCU: 0x7C0A, offset: 0x7C0A, size: 0x8, addend: 0x0, symName: __ZNSt3__117__compressed_pairINS_12basic_stringIcNS_11char_traitsIcEENS_9allocatorIcEEE5__repES5_EC2B7v160006INS_18__default_init_tagESA_EEOT_OT0_, symObjAddr: 0xB20, symBinAddr: 0x100004560, symSize: 0x30 }
  - { offsetInCU: 0x7C60, offset: 0x7C60, size: 0x8, addend: 0x0, symName: __ZNSt3__122__compressed_pair_elemINS_12basic_stringIcNS_11char_traitsIcEENS_9allocatorIcEEE5__repELi0ELb0EEC2B7v160006ENS_18__default_init_tagE, symObjAddr: 0xB50, symBinAddr: 0x100004590, symSize: 0x10 }
  - { offsetInCU: 0x7C92, offset: 0x7C92, size: 0x8, addend: 0x0, symName: __ZNSt3__122__compressed_pair_elemINS_9allocatorIcEELi1ELb1EEC2B7v160006ENS_18__default_init_tagE, symObjAddr: 0xB60, symBinAddr: 0x1000045A0, symSize: 0x20 }
  - { offsetInCU: 0x7CC4, offset: 0x7CC4, size: 0x8, addend: 0x0, symName: __ZNSt3__19allocatorIcEC2B7v160006Ev, symObjAddr: 0xB80, symBinAddr: 0x1000045C0, symSize: 0x20 }
  - { offsetInCU: 0x7CEC, offset: 0x7CEC, size: 0x8, addend: 0x0, symName: __ZNSt3__116__non_trivial_ifILb1ENS_9allocatorIcEEEC2B7v160006Ev, symObjAddr: 0xBA0, symBinAddr: 0x1000045E0, symSize: 0x10 }
  - { offsetInCU: 0x7D14, offset: 0x7D14, size: 0x8, addend: 0x0, symName: __ZNSt3__112basic_stringIcNS_11char_traitsIcEENS_9allocatorIcEEE13__get_pointerB7v160006Ev, symObjAddr: 0xBC0, symBinAddr: 0x100004600, symSize: 0x50 }
  - { offsetInCU: 0x7D38, offset: 0x7D38, size: 0x8, addend: 0x0, symName: __ZNKSt3__112basic_stringIcNS_11char_traitsIcEENS_9allocatorIcEEE9__is_longB7v160006Ev, symObjAddr: 0xC10, symBinAddr: 0x100004650, symSize: 0x30 }
  - { offsetInCU: 0x7D5C, offset: 0x7D5C, size: 0x8, addend: 0x0, symName: __ZNSt3__112basic_stringIcNS_11char_traitsIcEENS_9allocatorIcEEE18__get_long_pointerB7v160006Ev, symObjAddr: 0xC40, symBinAddr: 0x100004680, symSize: 0x20 }
  - { offsetInCU: 0x7D80, offset: 0x7D80, size: 0x8, addend: 0x0, symName: __ZNSt3__112basic_stringIcNS_11char_traitsIcEENS_9allocatorIcEEE19__get_short_pointerB7v160006Ev, symObjAddr: 0xC60, symBinAddr: 0x1000046A0, symSize: 0x30 }
  - { offsetInCU: 0x7DA4, offset: 0x7DA4, size: 0x8, addend: 0x0, symName: __ZNKSt3__117__compressed_pairINS_12basic_stringIcNS_11char_traitsIcEENS_9allocatorIcEEE5__repES5_E5firstB7v160006Ev, symObjAddr: 0xC90, symBinAddr: 0x1000046D0, symSize: 0x20 }
  - { offsetInCU: 0x7DC8, offset: 0x7DC8, size: 0x8, addend: 0x0, symName: __ZNKSt3__122__compressed_pair_elemINS_12basic_stringIcNS_11char_traitsIcEENS_9allocatorIcEEE5__repELi0ELb0EE5__getB7v160006Ev, symObjAddr: 0xCB0, symBinAddr: 0x1000046F0, symSize: 0x10 }
  - { offsetInCU: 0x7DEC, offset: 0x7DEC, size: 0x8, addend: 0x0, symName: __ZNSt3__117__compressed_pairINS_12basic_stringIcNS_11char_traitsIcEENS_9allocatorIcEEE5__repES5_E5firstB7v160006Ev, symObjAddr: 0xCC0, symBinAddr: 0x100004700, symSize: 0x20 }
  - { offsetInCU: 0x7E10, offset: 0x7E10, size: 0x8, addend: 0x0, symName: __ZNSt3__122__compressed_pair_elemINS_12basic_stringIcNS_11char_traitsIcEENS_9allocatorIcEEE5__repELi0ELb0EE5__getB7v160006Ev, symObjAddr: 0xCE0, symBinAddr: 0x100004720, symSize: 0x10 }
  - { offsetInCU: 0x7E34, offset: 0x7E34, size: 0x8, addend: 0x0, symName: __ZNSt3__114pointer_traitsIPcE10pointer_toB7v160006ERc, symObjAddr: 0xCF0, symBinAddr: 0x100004730, symSize: 0x10 }
  - { offsetInCU: 0x7E56, offset: 0x7E56, size: 0x8, addend: 0x0, symName: __ZNSt3__119ostreambuf_iteratorIcNS_11char_traitsIcEEEC2B7v160006ERNS_13basic_ostreamIcS2_EE, symObjAddr: 0xD00, symBinAddr: 0x100004740, symSize: 0x50 }
  - { offsetInCU: 0x7E8C, offset: 0x7E8C, size: 0x8, addend: 0x0, symName: __ZNKSt3__19basic_iosIcNS_11char_traitsIcEEE5rdbufB7v160006Ev, symObjAddr: 0xD50, symBinAddr: 0x100004790, symSize: 0x20 }
  - { offsetInCU: 0x7EB2, offset: 0x7EB2, size: 0x8, addend: 0x0, symName: __ZNKSt3__18ios_base5rdbufB7v160006Ev, symObjAddr: 0xD70, symBinAddr: 0x1000047B0, symSize: 0x20 }
  - { offsetInCU: 0x7ED6, offset: 0x7ED6, size: 0x8, addend: 0x0, symName: __ZNSt3__111char_traitsIcE11eq_int_typeEii, symObjAddr: 0xD90, symBinAddr: 0x1000047D0, symSize: 0x20 }
  - { offsetInCU: 0x7F06, offset: 0x7F06, size: 0x8, addend: 0x0, symName: __ZNSt3__111char_traitsIcE3eofEv, symObjAddr: 0xDB0, symBinAddr: 0x1000047F0, symSize: 0x10 }
  - { offsetInCU: 0x7F19, offset: 0x7F19, size: 0x8, addend: 0x0, symName: __ZNKSt3__19basic_iosIcNS_11char_traitsIcEEE5widenB7v160006Ec, symObjAddr: 0xDC0, symBinAddr: 0x100004800, symSize: 0x80 }
  - { offsetInCU: 0x7F85, offset: 0x7F85, size: 0x8, addend: 0x0, symName: __ZNKSt3__15ctypeIcE5widenB7v160006Ec, symObjAddr: 0xE70, symBinAddr: 0x1000048B0, symSize: 0x30 }
  - { offsetInCU: 0x7FB8, offset: 0x7FB8, size: 0x8, addend: 0x0, symName: __ZNSt3__18ios_base8setstateB7v160006Ej, symObjAddr: 0xEA0, symBinAddr: 0x1000048E0, symSize: 0x30 }
  - { offsetInCU: 0x7FED, offset: 0x7FED, size: 0x8, addend: 0x0, symName: __ZNKSt3__112basic_stringIcNS_11char_traitsIcEENS_9allocatorIcEEE13__get_pointerB7v160006Ev, symObjAddr: 0xEE0, symBinAddr: 0x100004920, symSize: 0x50 }
  - { offsetInCU: 0x8011, offset: 0x8011, size: 0x8, addend: 0x0, symName: __ZNKSt3__112basic_stringIcNS_11char_traitsIcEENS_9allocatorIcEEE18__get_long_pointerB7v160006Ev, symObjAddr: 0xF30, symBinAddr: 0x100004970, symSize: 0x20 }
  - { offsetInCU: 0x8035, offset: 0x8035, size: 0x8, addend: 0x0, symName: __ZNKSt3__112basic_stringIcNS_11char_traitsIcEENS_9allocatorIcEEE19__get_short_pointerB7v160006Ev, symObjAddr: 0xF50, symBinAddr: 0x100004990, symSize: 0x30 }
  - { offsetInCU: 0x8059, offset: 0x8059, size: 0x8, addend: 0x0, symName: __ZNSt3__114pointer_traitsIPKcE10pointer_toB7v160006ERS1_, symObjAddr: 0xF80, symBinAddr: 0x1000049C0, symSize: 0x10 }
  - { offsetInCU: 0x807B, offset: 0x807B, size: 0x8, addend: 0x0, symName: __ZNKSt3__112basic_stringIcNS_11char_traitsIcEENS_9allocatorIcEEE15__get_long_sizeB7v160006Ev, symObjAddr: 0xF90, symBinAddr: 0x1000049D0, symSize: 0x20 }
  - { offsetInCU: 0x809F, offset: 0x809F, size: 0x8, addend: 0x0, symName: __ZNKSt3__112basic_stringIcNS_11char_traitsIcEENS_9allocatorIcEEE16__get_short_sizeB7v160006Ev, symObjAddr: 0xFB0, symBinAddr: 0x1000049F0, symSize: 0x30 }
  - { offsetInCU: 0x80C3, offset: 0x80C3, size: 0x8, addend: 0x0, symName: __ZNSt3__111char_traitsIcE6lengthEPKc, symObjAddr: 0xFE0, symBinAddr: 0x100004A20, symSize: 0x30 }
  - { offsetInCU: 0x4C76, offset: 0xCDB5, size: 0x8, addend: 0x0, symName: __ZNSt3__1neB7v160006IP5MovieEEbRKNS_11__wrap_iterIT_EES7_, symObjAddr: 0x310, symBinAddr: 0x100004D80, symSize: 0x30 }
  - { offsetInCU: 0x4CB9, offset: 0xCDF8, size: 0x8, addend: 0x0, symName: __ZNSt3__1eqB7v160006INS_9allocatorIcEEEEbRKNS_12basic_stringIcNS_11char_traitsIcEET_EES9_, symObjAddr: 0x360, symBinAddr: 0x100004DD0, symSize: 0x110 }
  - { offsetInCU: 0x4D2C, offset: 0xCE6B, size: 0x8, addend: 0x0, symName: __ZNSt3__1neB7v160006IPK5MovieEEbRKNS_11__wrap_iterIT_EES8_, symObjAddr: 0x890, symBinAddr: 0x100005250, symSize: 0x30 }
  - { offsetInCU: 0x4D6F, offset: 0xCEAE, size: 0x8, addend: 0x0, symName: __ZNSt3__1eqB7v160006IP5MovieEEbRKNS_11__wrap_iterIT_EES7_, symObjAddr: 0x900, symBinAddr: 0x1000052C0, symSize: 0x40 }
  - { offsetInCU: 0x4DB2, offset: 0xCEF1, size: 0x8, addend: 0x0, symName: __ZNSt3__1eqB7v160006IPK5MovieEEbRKNS_11__wrap_iterIT_EES8_, symObjAddr: 0x960, symBinAddr: 0x100005320, symSize: 0x40 }
  - { offsetInCU: 0x4DF5, offset: 0xCF34, size: 0x8, addend: 0x0, symName: __ZNSt3__119__debug_db_insert_cB7v160006INS_6vectorI5MovieNS_9allocatorIS2_EEEEEEvPT_, symObjAddr: 0xA60, symBinAddr: 0x100005410, symSize: 0x10 }
  - { offsetInCU: 0x4E26, offset: 0xCF65, size: 0x8, addend: 0x0, symName: __ZNSt3__118__debug_db_erase_cB7v160006INS_6vectorI5MovieNS_9allocatorIS2_EEEEEEvPT_, symObjAddr: 0xCF0, symBinAddr: 0x1000056A0, symSize: 0x10 }
  - { offsetInCU: 0x4E57, offset: 0xCF96, size: 0x8, addend: 0x0, symName: __ZNSt3__112__to_addressB7v160006I5MovieEEPT_S3_, symObjAddr: 0xDF0, symBinAddr: 0x1000057A0, symSize: 0x10 }
  - { offsetInCU: 0x4E8C, offset: 0xCFCB, size: 0x8, addend: 0x0, symName: __ZNSt3__119__libcpp_deallocateB7v160006EPvmm, symObjAddr: 0xF10, symBinAddr: 0x1000058C0, symSize: 0x60 }
  - { offsetInCU: 0x4EF3, offset: 0xD032, size: 0x8, addend: 0x0, symName: __ZNSt3__124__is_overaligned_for_newB7v160006Em, symObjAddr: 0xF70, symBinAddr: 0x100005920, symSize: 0x20 }
  - { offsetInCU: 0x4F21, offset: 0xD060, size: 0x8, addend: 0x0, symName: __ZNSt3__127__do_deallocate_handle_sizeB7v160006IJSt11align_val_tEEEvPvmDpT_, symObjAddr: 0xF90, symBinAddr: 0x100005940, symSize: 0x30 }
  - { offsetInCU: 0x4F76, offset: 0xD0B5, size: 0x8, addend: 0x0, symName: __ZNSt3__127__do_deallocate_handle_sizeB7v160006IJEEEvPvmDpT_, symObjAddr: 0xFC0, symBinAddr: 0x100005970, symSize: 0x20 }
  - { offsetInCU: 0x4FB6, offset: 0xD0F5, size: 0x8, addend: 0x0, symName: __ZNSt3__124__libcpp_operator_deleteB7v160006IJPvSt11align_val_tEEEvDpT_, symObjAddr: 0xFE0, symBinAddr: 0x100005990, symSize: 0x30 }
  - { offsetInCU: 0x5002, offset: 0xD141, size: 0x8, addend: 0x0, symName: __ZNSt3__124__libcpp_operator_deleteB7v160006IJPvEEEvDpT_, symObjAddr: 0x1010, symBinAddr: 0x1000059C0, symSize: 0x20 }
  - { offsetInCU: 0x5039, offset: 0xD178, size: 0x8, addend: 0x0, symName: __ZNSt3__118__constexpr_memcmpB7v160006IcEEiPKT_S3_m, symObjAddr: 0x1380, symBinAddr: 0x100005B40, symSize: 0x30 }
  - { offsetInCU: 0x508A, offset: 0xD1C9, size: 0x8, addend: 0x0, symName: __ZNSt3__13maxB7v160006ImEERKT_S3_S3_, symObjAddr: 0x1920, symBinAddr: 0x1000060E0, symSize: 0x30 }
  - { offsetInCU: 0x50CD, offset: 0xD20C, size: 0x8, addend: 0x0, symName: __ZNSt3__13minB7v160006ImEERKT_S3_S3_, symObjAddr: 0x1950, symBinAddr: 0x100006110, symSize: 0x30 }
  - { offsetInCU: 0x52FA, offset: 0xD439, size: 0x8, addend: 0x0, symName: __ZNSt3__13minB7v160006ImNS_6__lessImmEEEERKT_S5_S5_T0_, symObjAddr: 0x19D0, symBinAddr: 0x100006190, symSize: 0x50 }
  - { offsetInCU: 0x538F, offset: 0xD4CE, size: 0x8, addend: 0x0, symName: __ZNSt3__120__throw_length_errorB7v160006EPKc, symObjAddr: 0x1AB0, symBinAddr: 0x100006270, symSize: 0x70 }
  - { offsetInCU: 0x53B8, offset: 0xD4F7, size: 0x8, addend: 0x0, symName: __ZNSt3__13maxB7v160006ImNS_6__lessImmEEEERKT_S5_S5_T0_, symObjAddr: 0x1B90, symBinAddr: 0x100006350, symSize: 0x50 }
  - { offsetInCU: 0x5412, offset: 0xD551, size: 0x8, addend: 0x0, symName: __ZNSt3__119__allocate_at_leastB7v160006INS_9allocatorI5MovieEEEENS_19__allocation_resultINS_16allocator_traitsIT_E7pointerEEERS6_m, symObjAddr: 0x1CD0, symBinAddr: 0x100006490, symSize: 0x40 }
  - { offsetInCU: 0x5455, offset: 0xD594, size: 0x8, addend: 0x0, symName: __ZNSt3__117__libcpp_allocateB7v160006Emm, symObjAddr: 0x1E40, symBinAddr: 0x100006600, symSize: 0x60 }
  - { offsetInCU: 0x54B0, offset: 0xD5EF, size: 0x8, addend: 0x0, symName: __ZNSt3__121__libcpp_operator_newB7v160006IJmSt11align_val_tEEEPvDpT_, symObjAddr: 0x1EA0, symBinAddr: 0x100006660, symSize: 0x30 }
  - { offsetInCU: 0x54FF, offset: 0xD63E, size: 0x8, addend: 0x0, symName: __ZNSt3__121__libcpp_operator_newB7v160006IJmEEEPvDpT_, symObjAddr: 0x1ED0, symBinAddr: 0x100006690, symSize: 0x20 }
  - { offsetInCU: 0x5539, offset: 0xD678, size: 0x8, addend: 0x0, symName: __ZNSt3__142__uninitialized_allocator_move_if_noexceptB7v160006INS_9allocatorI5MovieEENS_16reverse_iteratorIPS2_EES6_S6_EET2_RT_T0_T1_S7_, symObjAddr: 0x1F50, symBinAddr: 0x100006710, symSize: 0x180 }
  - { offsetInCU: 0x55D8, offset: 0xD717, size: 0x8, addend: 0x0, symName: __ZNSt3__14swapB7v160006IP5MovieEENS_9enable_ifIXaasr21is_move_constructibleIT_EE5valuesr18is_move_assignableIS4_EE5valueEvE4typeERS4_S7_, symObjAddr: 0x2120, symBinAddr: 0x1000068E0, symSize: 0x40 }
  - { offsetInCU: 0x562A, offset: 0xD769, size: 0x8, addend: 0x0, symName: __ZNSt3__125__debug_db_invalidate_allB7v160006INS_6vectorI5MovieNS_9allocatorIS2_EEEEEEvPT_, symObjAddr: 0x2200, symBinAddr: 0x1000069C0, symSize: 0x10 }
  - { offsetInCU: 0x565B, offset: 0xD79A, size: 0x8, addend: 0x0, symName: __ZNSt3__122__make_exception_guardB7v160006INS_29_AllocatorDestroyRangeReverseINS_9allocatorI5MovieEENS_16reverse_iteratorIPS3_EEEEEENS_28__exception_guard_exceptionsIT_EESA_, symObjAddr: 0x2210, symBinAddr: 0x1000069D0, symSize: 0x60 }
  - { offsetInCU: 0x5690, offset: 0xD7CF, size: 0x8, addend: 0x0, symName: __ZNSt3__1neB7v160006IP5MovieS2_EEbRKNS_16reverse_iteratorIT_EERKNS3_IT0_EE, symObjAddr: 0x22B0, symBinAddr: 0x100006A70, symSize: 0x40 }
  - { offsetInCU: 0x56DC, offset: 0xD81B, size: 0x8, addend: 0x0, symName: __ZNSt3__112__to_addressB7v160006INS_16reverse_iteratorIP5MovieEEvEENS_5decayIDTclsr19__to_address_helperIT_EE6__callclsr3stdE7declvalIRKS6_EEEEE4typeES8_, symObjAddr: 0x22F0, symBinAddr: 0x100006AB0, symSize: 0x20 }
  - { offsetInCU: 0x573D, offset: 0xD87C, size: 0x8, addend: 0x0, symName: __ZNSt3__119__allocator_destroyB7v160006INS_9allocatorI5MovieEENS_16reverse_iteratorINS4_IPS2_EEEES7_EEvRT_T0_T1_, symObjAddr: 0x25E0, symBinAddr: 0x100006DA0, symSize: 0x70 }
  - { offsetInCU: 0x57A1, offset: 0xD8E0, size: 0x8, addend: 0x0, symName: __ZNSt3__1neB7v160006INS_16reverse_iteratorIP5MovieEES4_EEbRKNS1_IT_EERKNS1_IT0_EE, symObjAddr: 0x2680, symBinAddr: 0x100006E40, symSize: 0x50 }
  - { offsetInCU: 0x57ED, offset: 0xD92C, size: 0x8, addend: 0x0, symName: __ZNSt3__112__to_addressB7v160006INS_16reverse_iteratorINS1_IP5MovieEEEEvEENS_5decayIDTclsr19__to_address_helperIT_EE6__callclsr3stdE7declvalIRKS7_EEEEE4typeES9_, symObjAddr: 0x26D0, symBinAddr: 0x100006E90, symSize: 0x20 }
  - { offsetInCU: 0x5A25, offset: 0xDB64, size: 0x8, addend: 0x0, symName: __ZSt28__throw_bad_array_new_lengthB7v160006v, symObjAddr: 0x1E00, symBinAddr: 0x1000065C0, symSize: 0x40 }
  - { offsetInCU: 0x5E71, offset: 0xDFB0, size: 0x8, addend: 0x0, symName: __ZNSt3__16vectorI5MovieNS_9allocatorIS1_EEE26__swap_out_circular_bufferERNS_14__split_bufferIS1_RS3_EE, symObjAddr: 0x1750, symBinAddr: 0x100005F10, symSize: 0x130 }
  - { offsetInCU: 0x7D28, offset: 0xFE67, size: 0x8, addend: 0x0, symName: __ZN6MoviesC2Ev, symObjAddr: 0x0, symBinAddr: 0x100004A70, symSize: 0x20 }
  - { offsetInCU: 0x7D52, offset: 0xFE91, size: 0x8, addend: 0x0, symName: __ZNSt3__16vectorI5MovieNS_9allocatorIS1_EEEC1B7v160006Ev, symObjAddr: 0x20, symBinAddr: 0x100004A90, symSize: 0x20 }
  - { offsetInCU: 0x7D7A, offset: 0xFEB9, size: 0x8, addend: 0x0, symName: __ZN6MoviesC1Ev, symObjAddr: 0x40, symBinAddr: 0x100004AB0, symSize: 0x20 }
  - { offsetInCU: 0x7DA4, offset: 0xFEE3, size: 0x8, addend: 0x0, symName: __ZN6MoviesD2Ev, symObjAddr: 0x60, symBinAddr: 0x100004AD0, symSize: 0x20 }
  - { offsetInCU: 0x7DCE, offset: 0xFF0D, size: 0x8, addend: 0x0, symName: __ZNSt3__16vectorI5MovieNS_9allocatorIS1_EEED1B7v160006Ev, symObjAddr: 0x80, symBinAddr: 0x100004AF0, symSize: 0x20 }
  - { offsetInCU: 0x7DF6, offset: 0xFF35, size: 0x8, addend: 0x0, symName: __ZN6MoviesD1Ev, symObjAddr: 0xA0, symBinAddr: 0x100004B10, symSize: 0x20 }
  - { offsetInCU: 0x7E20, offset: 0xFF5F, size: 0x8, addend: 0x0, symName: __ZN6Movies9add_movieENSt3__112basic_stringIcNS0_11char_traitsIcEENS0_9allocatorIcEEEES6_i, symObjAddr: 0xC0, symBinAddr: 0x100004B30, symSize: 0x1F0 }
  - { offsetInCU: 0x7ED6, offset: 0x10015, size: 0x8, addend: 0x0, symName: __ZNSt3__16vectorI5MovieNS_9allocatorIS1_EEE5beginB7v160006Ev, symObjAddr: 0x2B0, symBinAddr: 0x100004D20, symSize: 0x30 }
  - { offsetInCU: 0x7EFC, offset: 0x1003B, size: 0x8, addend: 0x0, symName: __ZNSt3__16vectorI5MovieNS_9allocatorIS1_EEE3endB7v160006Ev, symObjAddr: 0x2E0, symBinAddr: 0x100004D50, symSize: 0x30 }
  - { offsetInCU: 0x7F23, offset: 0x10062, size: 0x8, addend: 0x0, symName: __ZNKSt3__111__wrap_iterIP5MovieEdeB7v160006Ev, symObjAddr: 0x340, symBinAddr: 0x100004DB0, symSize: 0x20 }
  - { offsetInCU: 0x7F47, offset: 0x10086, size: 0x8, addend: 0x0, symName: __ZNK5Movie8get_nameEv, symObjAddr: 0x470, symBinAddr: 0x100004EE0, symSize: 0x30 }
  - { offsetInCU: 0x7F6B, offset: 0x100AA, size: 0x8, addend: 0x0, symName: __ZNSt3__111__wrap_iterIP5MovieEppB7v160006Ev, symObjAddr: 0x4A0, symBinAddr: 0x100004F10, symSize: 0x20 }
  - { offsetInCU: 0x7F8E, offset: 0x100CD, size: 0x8, addend: 0x0, symName: __ZNSt3__16vectorI5MovieNS_9allocatorIS1_EEE9push_backB7v160006ERKS1_, symObjAddr: 0x4C0, symBinAddr: 0x100004F30, symSize: 0x60 }
  - { offsetInCU: 0x7FC4, offset: 0x10103, size: 0x8, addend: 0x0, symName: __ZN6Movies17increment_watchedENSt3__112basic_stringIcNS0_11char_traitsIcEENS0_9allocatorIcEEEE, symObjAddr: 0x520, symBinAddr: 0x100004F90, symSize: 0xD0 }
  - { offsetInCU: 0x804D, offset: 0x1018C, size: 0x8, addend: 0x0, symName: __ZN5Movie17increment_watchedEv, symObjAddr: 0x5F0, symBinAddr: 0x100005060, symSize: 0x20 }
  - { offsetInCU: 0x8071, offset: 0x101B0, size: 0x8, addend: 0x0, symName: __ZNK6Movies7displayEv, symObjAddr: 0x610, symBinAddr: 0x100005080, symSize: 0x140 }
  - { offsetInCU: 0x80DA, offset: 0x10219, size: 0x8, addend: 0x0, symName: __ZNKSt3__16vectorI5MovieNS_9allocatorIS1_EEE4sizeB7v160006Ev, symObjAddr: 0x750, symBinAddr: 0x1000051C0, symSize: 0x30 }
  - { offsetInCU: 0x80FD, offset: 0x1023C, size: 0x8, addend: 0x0, symName: __ZNKSt3__16vectorI5MovieNS_9allocatorIS1_EEE5beginB7v160006Ev, symObjAddr: 0x830, symBinAddr: 0x1000051F0, symSize: 0x30 }
  - { offsetInCU: 0x8123, offset: 0x10262, size: 0x8, addend: 0x0, symName: __ZNKSt3__16vectorI5MovieNS_9allocatorIS1_EEE3endB7v160006Ev, symObjAddr: 0x860, symBinAddr: 0x100005220, symSize: 0x30 }
  - { offsetInCU: 0x814A, offset: 0x10289, size: 0x8, addend: 0x0, symName: __ZNKSt3__111__wrap_iterIPK5MovieEdeB7v160006Ev, symObjAddr: 0x8C0, symBinAddr: 0x100005280, symSize: 0x20 }
  - { offsetInCU: 0x816E, offset: 0x102AD, size: 0x8, addend: 0x0, symName: __ZNSt3__111__wrap_iterIPK5MovieEppB7v160006Ev, symObjAddr: 0x8E0, symBinAddr: 0x1000052A0, symSize: 0x20 }
  - { offsetInCU: 0x8192, offset: 0x102D1, size: 0x8, addend: 0x0, symName: __ZNKSt3__111__wrap_iterIP5MovieE4baseB7v160006Ev, symObjAddr: 0x940, symBinAddr: 0x100005300, symSize: 0x20 }
  - { offsetInCU: 0x81B6, offset: 0x102F5, size: 0x8, addend: 0x0, symName: __ZNKSt3__111__wrap_iterIPK5MovieE4baseB7v160006Ev, symObjAddr: 0x9A0, symBinAddr: 0x100005360, symSize: 0x20 }
  - { offsetInCU: 0x81DA, offset: 0x10319, size: 0x8, addend: 0x0, symName: __ZNSt3__16vectorI5MovieNS_9allocatorIS1_EEEC2B7v160006Ev, symObjAddr: 0x9C0, symBinAddr: 0x100005380, symSize: 0x60 }
  - { offsetInCU: 0x820C, offset: 0x1034B, size: 0x8, addend: 0x0, symName: __ZNSt3__117__compressed_pairIP5MovieNS_9allocatorIS1_EEEC1B7v160006IDnNS_18__default_init_tagEEEOT_OT0_, symObjAddr: 0xA20, symBinAddr: 0x1000053E0, symSize: 0x30 }
  - { offsetInCU: 0x8262, offset: 0x103A1, size: 0x8, addend: 0x0, symName: __ZNSt3__117__compressed_pairIP5MovieNS_9allocatorIS1_EEEC2B7v160006IDnNS_18__default_init_tagEEEOT_OT0_, symObjAddr: 0xA70, symBinAddr: 0x100005420, symSize: 0x40 }
  - { offsetInCU: 0x82B8, offset: 0x103F7, size: 0x8, addend: 0x0, symName: __ZNSt3__122__compressed_pair_elemIP5MovieLi0ELb0EEC2B7v160006IDnvEEOT_, symObjAddr: 0xAB0, symBinAddr: 0x100005460, symSize: 0x20 }
  - { offsetInCU: 0x82F9, offset: 0x10438, size: 0x8, addend: 0x0, symName: __ZNSt3__122__compressed_pair_elemINS_9allocatorI5MovieEELi1ELb1EEC2B7v160006ENS_18__default_init_tagE, symObjAddr: 0xAD0, symBinAddr: 0x100005480, symSize: 0x20 }
  - { offsetInCU: 0x832B, offset: 0x1046A, size: 0x8, addend: 0x0, symName: __ZNSt3__19allocatorI5MovieEC2B7v160006Ev, symObjAddr: 0xAF0, symBinAddr: 0x1000054A0, symSize: 0x20 }
  - { offsetInCU: 0x8353, offset: 0x10492, size: 0x8, addend: 0x0, symName: __ZNSt3__116__non_trivial_ifILb1ENS_9allocatorI5MovieEEEC2B7v160006Ev, symObjAddr: 0xB10, symBinAddr: 0x1000054C0, symSize: 0x10 }
  - { offsetInCU: 0x837B, offset: 0x104BA, size: 0x8, addend: 0x0, symName: __ZNSt3__16vectorI5MovieNS_9allocatorIS1_EEED2B7v160006Ev, symObjAddr: 0xB20, symBinAddr: 0x1000054D0, symSize: 0x40 }
  - { offsetInCU: 0x83A3, offset: 0x104E2, size: 0x8, addend: 0x0, symName: __ZNSt3__16vectorI5MovieNS_9allocatorIS1_EEE16__destroy_vectorC1ERS4_, symObjAddr: 0xB60, symBinAddr: 0x100005510, symSize: 0x30 }
  - { offsetInCU: 0x83DA, offset: 0x10519, size: 0x8, addend: 0x0, symName: __ZNSt3__16vectorI5MovieNS_9allocatorIS1_EEE16__destroy_vectorclB7v160006Ev, symObjAddr: 0xB90, symBinAddr: 0x100005540, symSize: 0x90 }
  - { offsetInCU: 0x83FE, offset: 0x1053D, size: 0x8, addend: 0x0, symName: __ZNSt3__16vectorI5MovieNS_9allocatorIS1_EEE16__destroy_vectorC2ERS4_, symObjAddr: 0xC20, symBinAddr: 0x1000055D0, symSize: 0x20 }
  - { offsetInCU: 0x8435, offset: 0x10574, size: 0x8, addend: 0x0, symName: __ZNKSt3__16vectorI5MovieNS_9allocatorIS1_EEE17__annotate_deleteB7v160006Ev, symObjAddr: 0xC40, symBinAddr: 0x1000055F0, symSize: 0xB0 }
  - { offsetInCU: 0x8459, offset: 0x10598, size: 0x8, addend: 0x0, symName: __ZNSt3__16vectorI5MovieNS_9allocatorIS1_EEE7__clearB7v160006Ev, symObjAddr: 0xD00, symBinAddr: 0x1000056B0, symSize: 0x20 }
  - { offsetInCU: 0x847D, offset: 0x105BC, size: 0x8, addend: 0x0, symName: __ZNSt3__116allocator_traitsINS_9allocatorI5MovieEEE10deallocateB7v160006ERS3_PS2_m, symObjAddr: 0xD20, symBinAddr: 0x1000056D0, symSize: 0x30 }
  - { offsetInCU: 0x84BE, offset: 0x105FD, size: 0x8, addend: 0x0, symName: __ZNSt3__16vectorI5MovieNS_9allocatorIS1_EEE7__allocB7v160006Ev, symObjAddr: 0xD50, symBinAddr: 0x100005700, symSize: 0x20 }
  - { offsetInCU: 0x84E2, offset: 0x10621, size: 0x8, addend: 0x0, symName: __ZNKSt3__16vectorI5MovieNS_9allocatorIS1_EEE8capacityB7v160006Ev, symObjAddr: 0xD70, symBinAddr: 0x100005720, symSize: 0x40 }
  - { offsetInCU: 0x8506, offset: 0x10645, size: 0x8, addend: 0x0, symName: __ZNKSt3__16vectorI5MovieNS_9allocatorIS1_EEE31__annotate_contiguous_containerB7v160006EPKvS6_S6_S6_, symObjAddr: 0xDB0, symBinAddr: 0x100005760, symSize: 0x20 }
  - { offsetInCU: 0x855A, offset: 0x10699, size: 0x8, addend: 0x0, symName: __ZNKSt3__16vectorI5MovieNS_9allocatorIS1_EEE4dataB7v160006Ev, symObjAddr: 0xDD0, symBinAddr: 0x100005780, symSize: 0x20 }
  - { offsetInCU: 0x857E, offset: 0x106BD, size: 0x8, addend: 0x0, symName: __ZNSt3__16vectorI5MovieNS_9allocatorIS1_EEE22__base_destruct_at_endB7v160006EPS1_, symObjAddr: 0xE00, symBinAddr: 0x1000057B0, symSize: 0x80 }
  - { offsetInCU: 0x85C0, offset: 0x106FF, size: 0x8, addend: 0x0, symName: __ZNSt3__116allocator_traitsINS_9allocatorI5MovieEEE7destroyB7v160006IS2_vEEvRS3_PT_, symObjAddr: 0xE80, symBinAddr: 0x100005830, symSize: 0x30 }
  - { offsetInCU: 0x85FD, offset: 0x1073C, size: 0x8, addend: 0x0, symName: __ZNSt3__19allocatorI5MovieE7destroyB7v160006EPS1_, symObjAddr: 0xEB0, symBinAddr: 0x100005860, symSize: 0x20 }
  - { offsetInCU: 0x862F, offset: 0x1076E, size: 0x8, addend: 0x0, symName: __ZNSt3__19allocatorI5MovieE10deallocateB7v160006EPS1_m, symObjAddr: 0xED0, symBinAddr: 0x100005880, symSize: 0x40 }
  - { offsetInCU: 0x866F, offset: 0x107AE, size: 0x8, addend: 0x0, symName: __ZNSt3__117__compressed_pairIP5MovieNS_9allocatorIS1_EEE6secondB7v160006Ev, symObjAddr: 0x1030, symBinAddr: 0x1000059E0, symSize: 0x20 }
  - { offsetInCU: 0x8693, offset: 0x107D2, size: 0x8, addend: 0x0, symName: __ZNSt3__122__compressed_pair_elemINS_9allocatorI5MovieEELi1ELb1EE5__getB7v160006Ev, symObjAddr: 0x1050, symBinAddr: 0x100005A00, symSize: 0x10 }
  - { offsetInCU: 0x86B7, offset: 0x107F6, size: 0x8, addend: 0x0, symName: __ZNKSt3__16vectorI5MovieNS_9allocatorIS1_EEE9__end_capB7v160006Ev, symObjAddr: 0x1060, symBinAddr: 0x100005A10, symSize: 0x20 }
  - { offsetInCU: 0x86DB, offset: 0x1081A, size: 0x8, addend: 0x0, symName: __ZNKSt3__117__compressed_pairIP5MovieNS_9allocatorIS1_EEE5firstB7v160006Ev, symObjAddr: 0x1080, symBinAddr: 0x100005A30, symSize: 0x20 }
  - { offsetInCU: 0x86FF, offset: 0x1083E, size: 0x8, addend: 0x0, symName: __ZNKSt3__122__compressed_pair_elemIP5MovieLi0ELb0EE5__getB7v160006Ev, symObjAddr: 0x10A0, symBinAddr: 0x100005A50, symSize: 0x10 }
  - { offsetInCU: 0x8723, offset: 0x10862, size: 0x8, addend: 0x0, symName: __ZNSt3__16vectorI5MovieNS_9allocatorIS1_EEE11__make_iterB7v160006EPS1_, symObjAddr: 0x10B0, symBinAddr: 0x100005A60, symSize: 0x30 }
  - { offsetInCU: 0x8756, offset: 0x10895, size: 0x8, addend: 0x0, symName: __ZNSt3__111__wrap_iterIP5MovieEC1B7v160006EPKvS2_, symObjAddr: 0x10E0, symBinAddr: 0x100005A90, symSize: 0x30 }
  - { offsetInCU: 0x879A, offset: 0x108D9, size: 0x8, addend: 0x0, symName: __ZNSt3__111__wrap_iterIP5MovieEC2B7v160006EPKvS2_, symObjAddr: 0x1110, symBinAddr: 0x100005AC0, symSize: 0x20 }
  - { offsetInCU: 0x87DE, offset: 0x1091D, size: 0x8, addend: 0x0, symName: __ZNSt3__111char_traitsIcE7compareEPKcS3_m, symObjAddr: 0x11E0, symBinAddr: 0x100005AE0, symSize: 0x60 }
  - { offsetInCU: 0x881C, offset: 0x1095B, size: 0x8, addend: 0x0, symName: __ZNSt3__16vectorI5MovieNS_9allocatorIS1_EEE9__end_capB7v160006Ev, symObjAddr: 0x13B0, symBinAddr: 0x100005B70, symSize: 0x20 }
  - { offsetInCU: 0x8840, offset: 0x1097F, size: 0x8, addend: 0x0, symName: __ZNSt3__16vectorI5MovieNS_9allocatorIS1_EEE22__construct_one_at_endB7v160006IJRKS1_EEEvDpOT_, symObjAddr: 0x13D0, symBinAddr: 0x100005B90, symSize: 0x90 }
  - { offsetInCU: 0x888D, offset: 0x109CC, size: 0x8, addend: 0x0, symName: __ZNSt3__16vectorI5MovieNS_9allocatorIS1_EEE21__push_back_slow_pathIRKS1_EEvOT_, symObjAddr: 0x1460, symBinAddr: 0x100005C20, symSize: 0xD0 }
  - { offsetInCU: 0x88EA, offset: 0x10A29, size: 0x8, addend: 0x0, symName: __ZNSt3__117__compressed_pairIP5MovieNS_9allocatorIS1_EEE5firstB7v160006Ev, symObjAddr: 0x1530, symBinAddr: 0x100005CF0, symSize: 0x20 }
  - { offsetInCU: 0x890E, offset: 0x10A4D, size: 0x8, addend: 0x0, symName: __ZNSt3__122__compressed_pair_elemIP5MovieLi0ELb0EE5__getB7v160006Ev, symObjAddr: 0x1550, symBinAddr: 0x100005D10, symSize: 0x10 }
  - { offsetInCU: 0x894B, offset: 0x10A8A, size: 0x8, addend: 0x0, symName: __ZNSt3__16vectorI5MovieNS_9allocatorIS1_EEE21_ConstructTransactionC1B7v160006ERS4_m, symObjAddr: 0x1560, symBinAddr: 0x100005D20, symSize: 0x30 }
  - { offsetInCU: 0x8991, offset: 0x10AD0, size: 0x8, addend: 0x0, symName: __ZNSt3__116allocator_traitsINS_9allocatorI5MovieEEE9constructB7v160006IS2_JRKS2_EvEEvRS3_PT_DpOT0_, symObjAddr: 0x1590, symBinAddr: 0x100005D50, symSize: 0x30 }
  - { offsetInCU: 0x89E9, offset: 0x10B28, size: 0x8, addend: 0x0, symName: __ZNSt3__16vectorI5MovieNS_9allocatorIS1_EEE21_ConstructTransactionD1B7v160006Ev, symObjAddr: 0x15C0, symBinAddr: 0x100005D80, symSize: 0x20 }
  - { offsetInCU: 0x8A11, offset: 0x10B50, size: 0x8, addend: 0x0, symName: __ZNSt3__16vectorI5MovieNS_9allocatorIS1_EEE21_ConstructTransactionC2B7v160006ERS4_m, symObjAddr: 0x15E0, symBinAddr: 0x100005DA0, symSize: 0x40 }
  - { offsetInCU: 0x8A57, offset: 0x10B96, size: 0x8, addend: 0x0, symName: __ZNSt3__19allocatorI5MovieE9constructB7v160006IS1_JRKS1_EEEvPT_DpOT0_, symObjAddr: 0x1620, symBinAddr: 0x100005DE0, symSize: 0x30 }
  - { offsetInCU: 0x8AAC, offset: 0x10BEB, size: 0x8, addend: 0x0, symName: __ZNSt3__16vectorI5MovieNS_9allocatorIS1_EEE21_ConstructTransactionD2B7v160006Ev, symObjAddr: 0x1650, symBinAddr: 0x100005E10, symSize: 0x20 }
  - { offsetInCU: 0x8AD3, offset: 0x10C12, size: 0x8, addend: 0x0, symName: __ZNKSt3__16vectorI5MovieNS_9allocatorIS1_EEE11__recommendB7v160006Em, symObjAddr: 0x1670, symBinAddr: 0x100005E30, symSize: 0xA0 }
  - { offsetInCU: 0x8B27, offset: 0x10C66, size: 0x8, addend: 0x0, symName: __ZNSt3__114__split_bufferI5MovieRNS_9allocatorIS1_EEEC1EmmS4_, symObjAddr: 0x1710, symBinAddr: 0x100005ED0, symSize: 0x40 }
  - { offsetInCU: 0x8B7C, offset: 0x10CBB, size: 0x8, addend: 0x0, symName: __ZNSt3__114__split_bufferI5MovieRNS_9allocatorIS1_EEED1Ev, symObjAddr: 0x1880, symBinAddr: 0x100006040, symSize: 0x20 }
  - { offsetInCU: 0x8BA6, offset: 0x10CE5, size: 0x8, addend: 0x0, symName: __ZNKSt3__16vectorI5MovieNS_9allocatorIS1_EEE8max_sizeEv, symObjAddr: 0x18A0, symBinAddr: 0x100006060, symSize: 0x60 }
  - { offsetInCU: 0x8BCD, offset: 0x10D0C, size: 0x8, addend: 0x0, symName: __ZNKSt3__16vectorI5MovieNS_9allocatorIS1_EEE20__throw_length_errorB7v160006Ev, symObjAddr: 0x1900, symBinAddr: 0x1000060C0, symSize: 0x20 }
  - { offsetInCU: 0x8BFB, offset: 0x10D3A, size: 0x8, addend: 0x0, symName: __ZNSt3__116allocator_traitsINS_9allocatorI5MovieEEE8max_sizeB7v160006IS3_vEEmRKS3_, symObjAddr: 0x1980, symBinAddr: 0x100006140, symSize: 0x20 }
  - { offsetInCU: 0x8C29, offset: 0x10D68, size: 0x8, addend: 0x0, symName: __ZNKSt3__16vectorI5MovieNS_9allocatorIS1_EEE7__allocB7v160006Ev, symObjAddr: 0x19A0, symBinAddr: 0x100006160, symSize: 0x20 }
  - { offsetInCU: 0x8C4D, offset: 0x10D8C, size: 0x8, addend: 0x0, symName: __ZNSt3__114numeric_limitsIlE3maxB7v160006Ev, symObjAddr: 0x19C0, symBinAddr: 0x100006180, symSize: 0x10 }
  - { offsetInCU: 0x8C74, offset: 0x10DB3, size: 0x8, addend: 0x0, symName: __ZNKSt3__16__lessImmEclB7v160006ERKmS3_, symObjAddr: 0x1A20, symBinAddr: 0x1000061E0, symSize: 0x30 }
  - { offsetInCU: 0x8CB4, offset: 0x10DF3, size: 0x8, addend: 0x0, symName: __ZNKSt3__19allocatorI5MovieE8max_sizeB7v160006Ev, symObjAddr: 0x1A50, symBinAddr: 0x100006210, symSize: 0x20 }
  - { offsetInCU: 0x8CD8, offset: 0x10E17, size: 0x8, addend: 0x0, symName: __ZNKSt3__117__compressed_pairIP5MovieNS_9allocatorIS1_EEE6secondB7v160006Ev, symObjAddr: 0x1A70, symBinAddr: 0x100006230, symSize: 0x20 }
  - { offsetInCU: 0x8CFC, offset: 0x10E3B, size: 0x8, addend: 0x0, symName: __ZNKSt3__122__compressed_pair_elemINS_9allocatorI5MovieEELi1ELb1EE5__getB7v160006Ev, symObjAddr: 0x1A90, symBinAddr: 0x100006250, symSize: 0x10 }
  - { offsetInCU: 0x8D20, offset: 0x10E5F, size: 0x8, addend: 0x0, symName: __ZNSt3__123__libcpp_numeric_limitsIlLb1EE3maxB7v160006Ev, symObjAddr: 0x1AA0, symBinAddr: 0x100006260, symSize: 0x10 }
  - { offsetInCU: 0x8D33, offset: 0x10E72, size: 0x8, addend: 0x0, symName: __ZNSt12length_errorC1B7v160006EPKc, symObjAddr: 0x1B20, symBinAddr: 0x1000062E0, symSize: 0x30 }
  - { offsetInCU: 0x8D69, offset: 0x10EA8, size: 0x8, addend: 0x0, symName: __ZNSt12length_errorC2B7v160006EPKc, symObjAddr: 0x1B50, symBinAddr: 0x100006310, symSize: 0x40 }
  - { offsetInCU: 0x8D9F, offset: 0x10EDE, size: 0x8, addend: 0x0, symName: __ZNSt3__114__split_bufferI5MovieRNS_9allocatorIS1_EEEC2EmmS4_, symObjAddr: 0x1BE0, symBinAddr: 0x1000063A0, symSize: 0xC0 }
  - { offsetInCU: 0x8E12, offset: 0x10F51, size: 0x8, addend: 0x0, symName: __ZNSt3__117__compressed_pairIP5MovieRNS_9allocatorIS1_EEEC1B7v160006IDnS5_EEOT_OT0_, symObjAddr: 0x1CA0, symBinAddr: 0x100006460, symSize: 0x30 }
  - { offsetInCU: 0x8E68, offset: 0x10FA7, size: 0x8, addend: 0x0, symName: __ZNSt3__114__split_bufferI5MovieRNS_9allocatorIS1_EEE7__allocB7v160006Ev, symObjAddr: 0x1D10, symBinAddr: 0x1000064D0, symSize: 0x20 }
  - { offsetInCU: 0x8E8C, offset: 0x10FCB, size: 0x8, addend: 0x0, symName: __ZNSt3__114__split_bufferI5MovieRNS_9allocatorIS1_EEE9__end_capB7v160006Ev, symObjAddr: 0x1D30, symBinAddr: 0x1000064F0, symSize: 0x20 }
  - { offsetInCU: 0x8EB0, offset: 0x10FEF, size: 0x8, addend: 0x0, symName: __ZNSt3__117__compressed_pairIP5MovieRNS_9allocatorIS1_EEEC2B7v160006IDnS5_EEOT_OT0_, symObjAddr: 0x1D50, symBinAddr: 0x100006510, symSize: 0x40 }
  - { offsetInCU: 0x8F06, offset: 0x11045, size: 0x8, addend: 0x0, symName: __ZNSt3__122__compressed_pair_elemIRNS_9allocatorI5MovieEELi1ELb0EEC2B7v160006IS4_vEEOT_, symObjAddr: 0x1D90, symBinAddr: 0x100006550, symSize: 0x20 }
  - { offsetInCU: 0x8F47, offset: 0x11086, size: 0x8, addend: 0x0, symName: __ZNSt3__19allocatorI5MovieE8allocateB7v160006Em, symObjAddr: 0x1DB0, symBinAddr: 0x100006570, symSize: 0x50 }
  - { offsetInCU: 0x8F79, offset: 0x110B8, size: 0x8, addend: 0x0, symName: __ZNSt3__117__compressed_pairIP5MovieRNS_9allocatorIS1_EEE6secondB7v160006Ev, symObjAddr: 0x1EF0, symBinAddr: 0x1000066B0, symSize: 0x20 }
  - { offsetInCU: 0x8F9D, offset: 0x110DC, size: 0x8, addend: 0x0, symName: __ZNSt3__122__compressed_pair_elemIRNS_9allocatorI5MovieEELi1ELb0EE5__getB7v160006Ev, symObjAddr: 0x1F10, symBinAddr: 0x1000066D0, symSize: 0x20 }
  - { offsetInCU: 0x8FC1, offset: 0x11100, size: 0x8, addend: 0x0, symName: __ZNSt3__117__compressed_pairIP5MovieRNS_9allocatorIS1_EEE5firstB7v160006Ev, symObjAddr: 0x1F30, symBinAddr: 0x1000066F0, symSize: 0x20 }
  - { offsetInCU: 0x8FE5, offset: 0x11124, size: 0x8, addend: 0x0, symName: __ZNSt3__116reverse_iteratorIP5MovieEC1B7v160006ES2_, symObjAddr: 0x20D0, symBinAddr: 0x100006890, symSize: 0x30 }
  - { offsetInCU: 0x901B, offset: 0x1115A, size: 0x8, addend: 0x0, symName: __ZNKSt3__116reverse_iteratorIP5MovieE4baseB7v160006Ev, symObjAddr: 0x2100, symBinAddr: 0x1000068C0, symSize: 0x20 }
  - { offsetInCU: 0x903F, offset: 0x1117E, size: 0x8, addend: 0x0, symName: __ZNKSt3__16vectorI5MovieNS_9allocatorIS1_EEE14__annotate_newB7v160006Em, symObjAddr: 0x2160, symBinAddr: 0x100006920, symSize: 0xA0 }
  - { offsetInCU: 0x9072, offset: 0x111B1, size: 0x8, addend: 0x0, symName: __ZNSt3__129_AllocatorDestroyRangeReverseINS_9allocatorI5MovieEENS_16reverse_iteratorIPS2_EEEC1B7v160006ERS3_RS6_S9_, symObjAddr: 0x2270, symBinAddr: 0x100006A30, symSize: 0x40 }
  - { offsetInCU: 0x90C7, offset: 0x11206, size: 0x8, addend: 0x0, symName: __ZNKSt3__116reverse_iteratorIP5MovieEdeB7v160006Ev, symObjAddr: 0x2310, symBinAddr: 0x100006AD0, symSize: 0x30 }
  - { offsetInCU: 0x90FA, offset: 0x11239, size: 0x8, addend: 0x0, symName: __ZNSt3__116reverse_iteratorIP5MovieEppB7v160006Ev, symObjAddr: 0x2340, symBinAddr: 0x100006B00, symSize: 0x20 }
  - { offsetInCU: 0x911E, offset: 0x1125D, size: 0x8, addend: 0x0, symName: __ZNSt3__128__exception_guard_exceptionsINS_29_AllocatorDestroyRangeReverseINS_9allocatorI5MovieEENS_16reverse_iteratorIPS3_EEEEE10__completeB7v160006Ev, symObjAddr: 0x2360, symBinAddr: 0x100006B20, symSize: 0x20 }
  - { offsetInCU: 0x9142, offset: 0x11281, size: 0x8, addend: 0x0, symName: __ZNSt3__128__exception_guard_exceptionsINS_29_AllocatorDestroyRangeReverseINS_9allocatorI5MovieEENS_16reverse_iteratorIPS3_EEEEED1B7v160006Ev, symObjAddr: 0x2380, symBinAddr: 0x100006B40, symSize: 0x20 }
  - { offsetInCU: 0x916A, offset: 0x112A9, size: 0x8, addend: 0x0, symName: __ZNSt3__128__exception_guard_exceptionsINS_29_AllocatorDestroyRangeReverseINS_9allocatorI5MovieEENS_16reverse_iteratorIPS3_EEEEEC1B7v160006ES8_, symObjAddr: 0x23A0, symBinAddr: 0x100006B60, symSize: 0x40 }
  - { offsetInCU: 0x91A0, offset: 0x112DF, size: 0x8, addend: 0x0, symName: __ZNSt3__128__exception_guard_exceptionsINS_29_AllocatorDestroyRangeReverseINS_9allocatorI5MovieEENS_16reverse_iteratorIPS3_EEEEEC2B7v160006ES8_, symObjAddr: 0x23E0, symBinAddr: 0x100006BA0, symSize: 0x30 }
  - { offsetInCU: 0x91D6, offset: 0x11315, size: 0x8, addend: 0x0, symName: __ZNSt3__129_AllocatorDestroyRangeReverseINS_9allocatorI5MovieEENS_16reverse_iteratorIPS2_EEEC2B7v160006ERS3_RS6_S9_, symObjAddr: 0x2410, symBinAddr: 0x100006BD0, symSize: 0x40 }
  - { offsetInCU: 0x9230, offset: 0x1136F, size: 0x8, addend: 0x0, symName: __ZNSt3__119__to_address_helperINS_16reverse_iteratorIP5MovieEEvE6__callB7v160006ERKS4_, symObjAddr: 0x2450, symBinAddr: 0x100006C10, symSize: 0x40 }
  - { offsetInCU: 0x9252, offset: 0x11391, size: 0x8, addend: 0x0, symName: __ZNKSt3__116reverse_iteratorIP5MovieEptB7v160006Ev, symObjAddr: 0x2490, symBinAddr: 0x100006C50, symSize: 0x20 }
  - { offsetInCU: 0x9276, offset: 0x113B5, size: 0x8, addend: 0x0, symName: __ZNSt3__128__exception_guard_exceptionsINS_29_AllocatorDestroyRangeReverseINS_9allocatorI5MovieEENS_16reverse_iteratorIPS3_EEEEED2B7v160006Ev, symObjAddr: 0x24B0, symBinAddr: 0x100006C70, symSize: 0x40 }
  - { offsetInCU: 0x929E, offset: 0x113DD, size: 0x8, addend: 0x0, symName: __ZNKSt3__129_AllocatorDestroyRangeReverseINS_9allocatorI5MovieEENS_16reverse_iteratorIPS2_EEEclB7v160006Ev, symObjAddr: 0x24F0, symBinAddr: 0x100006CB0, symSize: 0xF0 }
  - { offsetInCU: 0x92C3, offset: 0x11402, size: 0x8, addend: 0x0, symName: __ZNSt3__116reverse_iteratorINS0_IP5MovieEEEC1B7v160006ES3_, symObjAddr: 0x2650, symBinAddr: 0x100006E10, symSize: 0x30 }
  - { offsetInCU: 0x92F9, offset: 0x11438, size: 0x8, addend: 0x0, symName: __ZNSt3__116reverse_iteratorINS0_IP5MovieEEEppB7v160006Ev, symObjAddr: 0x26F0, symBinAddr: 0x100006EB0, symSize: 0x30 }
  - { offsetInCU: 0x931D, offset: 0x1145C, size: 0x8, addend: 0x0, symName: __ZNKSt3__116reverse_iteratorINS0_IP5MovieEEE4baseB7v160006Ev, symObjAddr: 0x2720, symBinAddr: 0x100006EE0, symSize: 0x20 }
  - { offsetInCU: 0x9346, offset: 0x11485, size: 0x8, addend: 0x0, symName: __ZNSt3__119__to_address_helperINS_16reverse_iteratorINS1_IP5MovieEEEEvE6__callB7v160006ERKS5_, symObjAddr: 0x2740, symBinAddr: 0x100006F00, symSize: 0x40 }
  - { offsetInCU: 0x9368, offset: 0x114A7, size: 0x8, addend: 0x0, symName: __ZNKSt3__116reverse_iteratorINS0_IP5MovieEEEptB7v160006Ev, symObjAddr: 0x2780, symBinAddr: 0x100006F40, symSize: 0x20 }
  - { offsetInCU: 0x938C, offset: 0x114CB, size: 0x8, addend: 0x0, symName: __ZNKSt3__116reverse_iteratorINS0_IP5MovieEEEdeB7v160006Ev, symObjAddr: 0x27A0, symBinAddr: 0x100006F60, symSize: 0x40 }
  - { offsetInCU: 0x93BF, offset: 0x114FE, size: 0x8, addend: 0x0, symName: __ZNSt3__116reverse_iteratorIP5MovieEmmB7v160006Ev, symObjAddr: 0x27E0, symBinAddr: 0x100006FA0, symSize: 0x20 }
  - { offsetInCU: 0x93E3, offset: 0x11522, size: 0x8, addend: 0x0, symName: __ZNSt3__116reverse_iteratorINS0_IP5MovieEEEC2B7v160006ES3_, symObjAddr: 0x2800, symBinAddr: 0x100006FC0, symSize: 0x40 }
  - { offsetInCU: 0x9419, offset: 0x11558, size: 0x8, addend: 0x0, symName: __ZNSt3__116reverse_iteratorIP5MovieEC2B7v160006ES2_, symObjAddr: 0x2840, symBinAddr: 0x100007000, symSize: 0x30 }
  - { offsetInCU: 0x944F, offset: 0x1158E, size: 0x8, addend: 0x0, symName: __ZNSt3__114__split_bufferI5MovieRNS_9allocatorIS1_EEED2Ev, symObjAddr: 0x2870, symBinAddr: 0x100007030, symSize: 0x70 }
  - { offsetInCU: 0x947A, offset: 0x115B9, size: 0x8, addend: 0x0, symName: __ZNSt3__114__split_bufferI5MovieRNS_9allocatorIS1_EEE5clearB7v160006Ev, symObjAddr: 0x28E0, symBinAddr: 0x1000070A0, symSize: 0x20 }
  - { offsetInCU: 0x949E, offset: 0x115DD, size: 0x8, addend: 0x0, symName: __ZNKSt3__114__split_bufferI5MovieRNS_9allocatorIS1_EEE8capacityB7v160006Ev, symObjAddr: 0x2900, symBinAddr: 0x1000070C0, symSize: 0x40 }
  - { offsetInCU: 0x94C2, offset: 0x11601, size: 0x8, addend: 0x0, symName: __ZNSt3__114__split_bufferI5MovieRNS_9allocatorIS1_EEE17__destruct_at_endB7v160006EPS1_, symObjAddr: 0x2940, symBinAddr: 0x100007100, symSize: 0x30 }
  - { offsetInCU: 0x94F3, offset: 0x11632, size: 0x8, addend: 0x0, symName: __ZNSt3__114__split_bufferI5MovieRNS_9allocatorIS1_EEE17__destruct_at_endB7v160006EPS1_NS_17integral_constantIbLb0EEE, symObjAddr: 0x2970, symBinAddr: 0x100007130, symSize: 0x80 }
  - { offsetInCU: 0x9532, offset: 0x11671, size: 0x8, addend: 0x0, symName: __ZNKSt3__114__split_bufferI5MovieRNS_9allocatorIS1_EEE9__end_capB7v160006Ev, symObjAddr: 0x29F0, symBinAddr: 0x1000071B0, symSize: 0x20 }
  - { offsetInCU: 0x9556, offset: 0x11695, size: 0x8, addend: 0x0, symName: __ZNKSt3__117__compressed_pairIP5MovieRNS_9allocatorIS1_EEE5firstB7v160006Ev, symObjAddr: 0x2A10, symBinAddr: 0x1000071D0, symSize: 0x20 }
  - { offsetInCU: 0x957A, offset: 0x116B9, size: 0x8, addend: 0x0, symName: __ZNKSt3__16vectorI5MovieNS_9allocatorIS1_EEE11__make_iterB7v160006EPKS1_, symObjAddr: 0x3480, symBinAddr: 0x1000071F0, symSize: 0x30 }
  - { offsetInCU: 0x95AD, offset: 0x116EC, size: 0x8, addend: 0x0, symName: __ZNSt3__111__wrap_iterIPK5MovieEC1B7v160006EPKvS3_, symObjAddr: 0x34B0, symBinAddr: 0x100007220, symSize: 0x30 }
  - { offsetInCU: 0x95F1, offset: 0x11730, size: 0x8, addend: 0x0, symName: __ZNSt3__111__wrap_iterIPK5MovieEC2B7v160006EPKvS3_, symObjAddr: 0x34E0, symBinAddr: 0x100007250, symSize: 0x1D }
  - { offsetInCU: 0x54C5, offset: 0x16CD8, size: 0x8, addend: 0x0, symName: __Z17increment_watchedR6MoviesNSt3__112basic_stringIcNS1_11char_traitsIcEENS1_9allocatorIcEEEE, symObjAddr: 0x0, symBinAddr: 0x100007270, symSize: 0xF0 }
  - { offsetInCU: 0x54FC, offset: 0x16D0F, size: 0x8, addend: 0x0, symName: __Z9add_movieR6MoviesNSt3__112basic_stringIcNS1_11char_traitsIcEENS1_9allocatorIcEEEES7_i, symObjAddr: 0x1F0, symBinAddr: 0x100007360, symSize: 0x130 }
  - { offsetInCU: 0x5550, offset: 0x16D63, size: 0x8, addend: 0x0, symName: _main, symObjAddr: 0x320, symBinAddr: 0x100007490, symSize: 0x3B0 }
  - { offsetInCU: 0x557F, offset: 0x16D92, size: 0x8, addend: 0x0, symName: __ZNSt3__112basic_stringIcNS_11char_traitsIcEENS_9allocatorIcEEEC1B7v160006IDnEEPKc, symObjAddr: 0x6D0, symBinAddr: 0x100007840, symSize: 0x30 }
  - { offsetInCU: 0x55BC, offset: 0x16DCF, size: 0x8, addend: 0x0, symName: __ZNSt3__112basic_stringIcNS_11char_traitsIcEENS_9allocatorIcEEEC2B7v160006IDnEEPKc, symObjAddr: 0x1350, symBinAddr: 0x100007870, symSize: 0x55 }
...
